target datalayout = "e-m:e-p270:32:32-p271:32:32-p272:64:64-i64:64-i128:128-f80:128-n8:16:32:64-S128"
target triple = "x86_64-pc-linux-gnu"

%struct._YR_COMPILER = type { i32, i32, i32, i32, i32, [1 x %struct.__jmp_buf_tag], ptr, ptr, ptr, ptr, ptr, ptr, ptr, ptr, ptr, ptr, ptr, ptr, ptr, ptr, i32, i32, [4 x ptr], [4 x ptr], i32, i32, i32, [16 x ptr], i32, [16 x ptr], i32, [256 x i8], [1024 x i8], ptr, i16, [1024 x i8], ptr, %struct.rq, %struct.cs, ptr, i32 }
%struct.__jmp_buf_tag = type { [8 x i64], i32, %struct.__sigset_t }
%struct.__sigset_t = type { [16 x i64] }
%struct.rq = type { ptr, ptr }
%struct.cs = type { ptr, ptr }

; Function Attrs: nounwind uwtable
define i32 @_yr_compiler_push_file_name(ptr noundef %0, ptr noundef %1) #0 {
  %3 = alloca i32, align 4
  %4 = alloca ptr, align 8
  %5 = alloca ptr, align 8
  %6 = alloca ptr, align 8
  %7 = alloca i32, align 4
  store ptr %0, ptr %4, align 8
  store ptr %1, ptr %5, align 8
  store i32 0, ptr %7, align 4
  br label %8

8:                                                ; preds = %28, %2
  %9 = load i32, ptr %7, align 4
  %10 = load ptr, ptr %4, align 8
  %11 = getelementptr inbounds %struct._YR_COMPILER, ptr %10, i32 0, i32 28
  %12 = load i32, ptr %11, align 8
  %13 = icmp slt i32 %9, %12
  br i1 %13, label %14, label %31

14:                                               ; preds = %8
  %15 = load ptr, ptr %5, align 8
  %16 = load ptr, ptr %4, align 8
  %17 = getelementptr inbounds %struct._YR_COMPILER, ptr %16, i32 0, i32 27
  %18 = load i32, ptr %7, align 4
  %19 = sext i32 %18 to i64
  %20 = getelementptr inbounds [16 x ptr], ptr %17, i64 0, i64 %19
  %21 = load ptr, ptr %20, align 8
  %22 = call i32 @strcmp(ptr noundef %15, ptr noundef %21) #4
  %23 = icmp eq i32 %22, 0
  br i1 %23, label %24, label %27

24:                                               ; preds = %14
  %25 = load ptr, ptr %4, align 8
  %26 = getelementptr inbounds %struct._YR_COMPILER, ptr %25, i32 0, i32 4
  store i32 22, ptr %26, align 8
  store i32 22, ptr %3, align 4
  br label %58

27:                                               ; preds = %14
  br label %28

28:                                               ; preds = %27
  %29 = load i32, ptr %7, align 4
  %30 = add nsw i32 %29, 1
  store i32 %30, ptr %7, align 4
  br label %8

31:                                               ; preds = %8
  %32 = load ptr, ptr %4, align 8
  %33 = getelementptr inbounds %struct._YR_COMPILER, ptr %32, i32 0, i32 28
  %34 = load i32, ptr %33, align 8
  %35 = icmp slt i32 %34, 16
  br i1 %35, label %36, label %55

36:                                               ; preds = %31
  %37 = load ptr, ptr %5, align 8
  %38 = call ptr @cli_safer_strdup(ptr noundef %37)
  store ptr %38, ptr %6, align 8
  %39 = load ptr, ptr %6, align 8
  %40 = icmp eq ptr %39, null
  br i1 %40, label %41, label %42

41:                                               ; preds = %36
  store i32 1, ptr %3, align 4
  br label %58

42:                                               ; preds = %36
  %43 = load ptr, ptr %6, align 8
  %44 = load ptr, ptr %4, align 8
  %45 = getelementptr inbounds %struct._YR_COMPILER, ptr %44, i32 0, i32 27
  %46 = load ptr, ptr %4, align 8
  %47 = getelementptr inbounds %struct._YR_COMPILER, ptr %46, i32 0, i32 28
  %48 = load i32, ptr %47, align 8
  %49 = sext i32 %48 to i64
  %50 = getelementptr inbounds [16 x ptr], ptr %45, i64 0, i64 %49
  store ptr %43, ptr %50, align 8
  %51 = load ptr, ptr %4, align 8
  %52 = getelementptr inbounds %struct._YR_COMPILER, ptr %51, i32 0, i32 28
  %53 = load i32, ptr %52, align 8
  %54 = add nsw i32 %53, 1
  store i32 %54, ptr %52, align 8
  store i32 0, ptr %3, align 4
  br label %58

55:                                               ; preds = %31
  %56 = load ptr, ptr %4, align 8
  %57 = getelementptr inbounds %struct._YR_COMPILER, ptr %56, i32 0, i32 4
  store i32 23, ptr %57, align 8
  store i32 23, ptr %3, align 4
  br label %58

58:                                               ; preds = %55, %42, %41, %24
  %59 = load i32, ptr %3, align 4
  ret i32 %59
}