; Function Attrs: nounwind uwtable
define noundef i32 @_yr_compiler_push_file_name(ptr nocapture noundef %0, ptr noundef %1) local_unnamed_addr #1 {
  %3 = getelementptr inbounds i8, ptr %0, i64 552
  %4 = load i32, ptr %3, align 8
  %5 = icmp sgt i32 %4, 0
  br i1 %5, label %.lr.ph, label %._crit_edge.thread

.lr.ph:                                           ; preds = %2
  %6 = getelementptr inbounds i8, ptr %0, i64 424
  %wide.trip.count = zext nneg i32 %4 to i64
  br label %8

7:                                                ; preds = %8
  %indvars.iv.next = add nuw nsw i64 %indvars.iv, 1
  %exitcond.not = icmp eq i64 %indvars.iv.next, %wide.trip.count
  br i1 %exitcond.not, label %._crit_edge, label %8

8:                                                ; preds = %.lr.ph, %7
  %indvars.iv = phi i64 [ 0, %.lr.ph ], [ %indvars.iv.next, %7 ]
  %9 = getelementptr inbounds [16 x ptr], ptr %6, i64 0, i64 %indvars.iv
  %10 = load ptr, ptr %9, align 8
  %11 = tail call i32 @strcmp(ptr noundef nonnull dereferenceable(1) %1, ptr noundef nonnull dereferenceable(1) %10) #9
  %12 = icmp eq i32 %11, 0
  br i1 %12, label %13, label %7

13:                                               ; preds = %8
  %14 = getelementptr inbounds i8, ptr %0, i64 16
  store i32 22, ptr %14, align 8
  br label %27

._crit_edge:                                      ; preds = %7
  %15 = icmp slt i32 %4, 16
  br i1 %15, label %._crit_edge.thread, label %25

._crit_edge.thread:                               ; preds = %2, %._crit_edge
  %16 = tail call ptr @cli_safer_strdup(ptr noundef %1) #10
  %17 = icmp eq ptr %16, null
  br i1 %17, label %27, label %18

18:                                               ; preds = %._crit_edge.thread
  %19 = getelementptr inbounds i8, ptr %0, i64 424
  %20 = load i32, ptr %3, align 8
  %21 = sext i32 %20 to i64
  %22 = getelementptr inbounds [16 x ptr], ptr %19, i64 0, i64 %21
  store ptr %16, ptr %22, align 8
  %23 = load i32, ptr %3, align 8
  %24 = add nsw i32 %23, 1
  store i32 %24, ptr %3, align 8
  br label %27

25:                                               ; preds = %._crit_edge
  %26 = getelementptr inbounds i8, ptr %0, i64 16
  store i32 23, ptr %26, align 8
  br label %27

27:                                               ; preds = %._crit_edge.thread, %25, %18, %13
  %.015 = phi i32 [ 22, %13 ], [ 0, %18 ], [ 23, %25 ], [ 1, %._crit_edge.thread ]
  ret i32 %.015
}